; ModuleID = '1120.c'
source_filename = "1120.c"
target datalayout = "e-m:e-p270:32:32-p271:32:32-p272:64:64-i64:64-f80:128-n8:16:32:64-S128"
target triple = "x86_64-pc-linux-gnu"

%struct.aaa = type { [105 x i8], [105 x i8] }

@.str = private unnamed_addr constant [4 x i8] c"%d\0A\00", align 1
@.str.1 = private unnamed_addr constant [7 x i8] c"%s\0A%s\0A\00", align 1

; Function Attrs: noinline nounwind uwtable
define dso_local i32 @right(i8* %0, i32 %1, i32 %2) #0 {
  %4 = alloca i8*, align 8
  %5 = alloca i32, align 4
  %6 = alloca i32, align 4
  %7 = alloca i32, align 4
  %8 = alloca i32, align 4
  %9 = alloca i32, align 4
  %10 = alloca i32, align 4
  store i8* %0, i8** %4, align 8
  store i32 %1, i32* %5, align 4
  store i32 %2, i32* %6, align 4
  store i32 0, i32* %8, align 4
  store i32 0, i32* %9, align 4
  store i32 0, i32* %10, align 4
  %11 = load i32, i32* %5, align 4
  %12 = add nsw i32 %11, 1
  store i32 %12, i32* %7, align 4
  br label %13

13:                                               ; preds = %45, %3
  %14 = load i32, i32* %7, align 4
  %15 = load i32, i32* %6, align 4
  %16 = icmp slt i32 %14, %15
  br i1 %16, label %17, label %48

17:                                               ; preds = %13
  %18 = load i8*, i8** %4, align 8
  %19 = load i32, i32* %7, align 4
  %20 = sext i32 %19 to i64
  %21 = getelementptr inbounds i8, i8* %18, i64 %20
  %22 = load i8, i8* %21, align 1
  %23 = sext i8 %22 to i32
  %24 = icmp eq i32 %23, 40
  br i1 %24, label %25, label %28

25:                                               ; preds = %17
  %26 = load i32, i32* %9, align 4
  %27 = add nsw i32 %26, 1
  store i32 %27, i32* %9, align 4
  br label %28

28:                                               ; preds = %25, %17
  %29 = load i8*, i8** %4, align 8
  %30 = load i32, i32* %7, align 4
  %31 = sext i32 %30 to i64
  %32 = getelementptr inbounds i8, i8* %29, i64 %31
  %33 = load i8, i8* %32, align 1
  %34 = sext i8 %33 to i32
  %35 = icmp eq i32 %34, 41
  br i1 %35, label %36, label %39

36:                                               ; preds = %28
  %37 = load i32, i32* %8, align 4
  %38 = add nsw i32 %37, 1
  store i32 %38, i32* %8, align 4
  br label %39

39:                                               ; preds = %36, %28
  %40 = load i32, i32* %9, align 4
  %41 = load i32, i32* %8, align 4
  %42 = icmp slt i32 %40, %41
  br i1 %42, label %43, label %44

43:                                               ; preds = %39
  store i32 1, i32* %10, align 4
  br label %48

44:                                               ; preds = %39
  br label %45

45:                                               ; preds = %44
  %46 = load i32, i32* %7, align 4
  %47 = add nsw i32 %46, 1
  store i32 %47, i32* %7, align 4
  br label %13

48:                                               ; preds = %43, %13
  %49 = load i32, i32* %10, align 4
  ret i32 %49
}

; Function Attrs: noinline nounwind uwtable
define dso_local i32 @left(i8* %0, i32 %1) #0 {
  %3 = alloca i8*, align 8
  %4 = alloca i32, align 4
  %5 = alloca i32, align 4
  %6 = alloca i32, align 4
  %7 = alloca i32, align 4
  %8 = alloca i32, align 4
  store i8* %0, i8** %3, align 8
  store i32 %1, i32* %4, align 4
  store i32 0, i32* %6, align 4
  store i32 0, i32* %7, align 4
  store i32 0, i32* %8, align 4
  %9 = load i32, i32* %4, align 4
  %10 = sub nsw i32 %9, 1
  store i32 %10, i32* %5, align 4
  br label %11

11:                                               ; preds = %42, %2
  %12 = load i32, i32* %5, align 4
  %13 = icmp sge i32 %12, 0
  br i1 %13, label %14, label %45

14:                                               ; preds = %11
  %15 = load i8*, i8** %3, align 8
  %16 = load i32, i32* %5, align 4
  %17 = sext i32 %16 to i64
  %18 = getelementptr inbounds i8, i8* %15, i64 %17
  %19 = load i8, i8* %18, align 1
  %20 = sext i8 %19 to i32
  %21 = icmp eq i32 %20, 40
  br i1 %21, label %22, label %25

22:                                               ; preds = %14
  %23 = load i32, i32* %7, align 4
  %24 = add nsw i32 %23, 1
  store i32 %24, i32* %7, align 4
  br label %25

25:                                               ; preds = %22, %14
  %26 = load i8*, i8** %3, align 8
  %27 = load i32, i32* %5, align 4
  %28 = sext i32 %27 to i64
  %29 = getelementptr inbounds i8, i8* %26, i64 %28
  %30 = load i8, i8* %29, align 1
  %31 = sext i8 %30 to i32
  %32 = icmp eq i32 %31, 41
  br i1 %32, label %33, label %36

33:                                               ; preds = %25
  %34 = load i32, i32* %6, align 4
  %35 = add nsw i32 %34, 1
  store i32 %35, i32* %6, align 4
  br label %36

36:                                               ; preds = %33, %25
  %37 = load i32, i32* %7, align 4
  %38 = load i32, i32* %6, align 4
  %39 = icmp sgt i32 %37, %38
  br i1 %39, label %40, label %41

40:                                               ; preds = %36
  store i32 1, i32* %8, align 4
  br label %45

41:                                               ; preds = %36
  br label %42

42:                                               ; preds = %41
  %43 = load i32, i32* %5, align 4
  %44 = add nsw i32 %43, -1
  store i32 %44, i32* %5, align 4
  br label %11

45:                                               ; preds = %40, %11
  %46 = load i32, i32* %8, align 4
  ret i32 %46
}

; Function Attrs: noinline nounwind uwtable
define dso_local i32 @trans(i8* %0, i8* %1) #0 {
  %3 = alloca i32, align 4
  %4 = alloca i8*, align 8
  %5 = alloca i8*, align 8
  %6 = alloca i32, align 4
  %7 = alloca i32, align 4
  store i8* %0, i8** %4, align 8
  store i8* %1, i8** %5, align 8
  %8 = load i8*, i8** %4, align 8
  %9 = call i64 @strlen(i8* %8) #3
  %10 = trunc i64 %9 to i32
  store i32 %10, i32* %6, align 4
  store i32 0, i32* %7, align 4
  br label %11

11:                                               ; preds = %59, %2
  %12 = load i32, i32* %7, align 4
  %13 = load i32, i32* %6, align 4
  %14 = icmp slt i32 %12, %13
  br i1 %14, label %15, label %62

15:                                               ; preds = %11
  %16 = load i8*, i8** %5, align 8
  %17 = load i32, i32* %7, align 4
  %18 = sext i32 %17 to i64
  %19 = getelementptr inbounds i8, i8* %16, i64 %18
  store i8 32, i8* %19, align 1
  %20 = load i8*, i8** %4, align 8
  %21 = load i32, i32* %7, align 4
  %22 = sext i32 %21 to i64
  %23 = getelementptr inbounds i8, i8* %20, i64 %22
  %24 = load i8, i8* %23, align 1
  %25 = sext i8 %24 to i32
  %26 = icmp eq i32 %25, 41
  br i1 %26, label %27, label %38

27:                                               ; preds = %15
  %28 = load i8*, i8** %4, align 8
  %29 = load i32, i32* %7, align 4
  %30 = call i32 @left(i8* %28, i32 %29)
  %31 = icmp eq i32 %30, 0
  br i1 %31, label %32, label %37

32:                                               ; preds = %27
  %33 = load i8*, i8** %5, align 8
  %34 = load i32, i32* %7, align 4
  %35 = sext i32 %34 to i64
  %36 = getelementptr inbounds i8, i8* %33, i64 %35
  store i8 63, i8* %36, align 1
  br label %37

37:                                               ; preds = %32, %27
  br label %38

38:                                               ; preds = %37, %15
  %39 = load i8*, i8** %4, align 8
  %40 = load i32, i32* %7, align 4
  %41 = sext i32 %40 to i64
  %42 = getelementptr inbounds i8, i8* %39, i64 %41
  %43 = load i8, i8* %42, align 1
  %44 = sext i8 %43 to i32
  %45 = icmp eq i32 %44, 40
  br i1 %45, label %46, label %58

46:                                               ; preds = %38
  %47 = load i8*, i8** %4, align 8
  %48 = load i32, i32* %7, align 4
  %49 = load i32, i32* %6, align 4
  %50 = call i32 @right(i8* %47, i32 %48, i32 %49)
  %51 = icmp eq i32 %50, 0
  br i1 %51, label %52, label %57

52:                                               ; preds = %46
  %53 = load i8*, i8** %5, align 8
  %54 = load i32, i32* %7, align 4
  %55 = sext i32 %54 to i64
  %56 = getelementptr inbounds i8, i8* %53, i64 %55
  store i8 36, i8* %56, align 1
  br label %57

57:                                               ; preds = %52, %46
  br label %58

58:                                               ; preds = %57, %38
  br label %59

59:                                               ; preds = %58
  %60 = load i32, i32* %7, align 4
  %61 = add nsw i32 %60, 1
  store i32 %61, i32* %7, align 4
  br label %11

62:                                               ; preds = %11
  %63 = load i8*, i8** %5, align 8
  %64 = load i32, i32* %6, align 4
  %65 = sext i32 %64 to i64
  %66 = getelementptr inbounds i8, i8* %63, i64 %65
  store i8 0, i8* %66, align 1
  %67 = load i32, i32* %3, align 4
  ret i32 %67
}

; Function Attrs: nounwind readonly
declare dso_local i64 @strlen(i8*) #1

; Function Attrs: noinline nounwind uwtable
define dso_local i32 @main() #0 {
  %1 = alloca i32, align 4
  %2 = alloca i32, align 4
  %3 = alloca i32, align 4
  %4 = alloca i32, align 4
  %5 = alloca [20 x %struct.aaa], align 16
  store i32 0, i32* %1, align 4
  %6 = call i32 (i8*, ...) @__isoc99_scanf(i8* getelementptr inbounds ([4 x i8], [4 x i8]* @.str, i64 0, i64 0), i32* %4)
  store i32 0, i32* %2, align 4
  br label %7

7:                                                ; preds = %29, %0
  %8 = load i32, i32* %2, align 4
  %9 = load i32, i32* %4, align 4
  %10 = icmp slt i32 %8, %9
  br i1 %10, label %11, label %32

11:                                               ; preds = %7
  %12 = load i32, i32* %2, align 4
  %13 = sext i32 %12 to i64
  %14 = getelementptr inbounds [20 x %struct.aaa], [20 x %struct.aaa]* %5, i64 0, i64 %13
  %15 = getelementptr inbounds %struct.aaa, %struct.aaa* %14, i32 0, i32 0
  %16 = getelementptr inbounds [105 x i8], [105 x i8]* %15, i64 0, i64 0
  %17 = call i32 (i8*, ...) bitcast (i32 (...)* @gets to i32 (i8*, ...)*)(i8* %16)
  %18 = load i32, i32* %2, align 4
  %19 = sext i32 %18 to i64
  %20 = getelementptr inbounds [20 x %struct.aaa], [20 x %struct.aaa]* %5, i64 0, i64 %19
  %21 = getelementptr inbounds %struct.aaa, %struct.aaa* %20, i32 0, i32 0
  %22 = getelementptr inbounds [105 x i8], [105 x i8]* %21, i64 0, i64 0
  %23 = load i32, i32* %2, align 4
  %24 = sext i32 %23 to i64
  %25 = getelementptr inbounds [20 x %struct.aaa], [20 x %struct.aaa]* %5, i64 0, i64 %24
  %26 = getelementptr inbounds %struct.aaa, %struct.aaa* %25, i32 0, i32 1
  %27 = getelementptr inbounds [105 x i8], [105 x i8]* %26, i64 0, i64 0
  %28 = call i32 @trans(i8* %22, i8* %27)
  br label %29

29:                                               ; preds = %11
  %30 = load i32, i32* %2, align 4
  %31 = add nsw i32 %30, 1
  store i32 %31, i32* %2, align 4
  br label %7

32:                                               ; preds = %7
  store i32 0, i32* %2, align 4
  br label %33

33:                                               ; preds = %49, %32
  %34 = load i32, i32* %2, align 4
  %35 = load i32, i32* %4, align 4
  %36 = icmp slt i32 %34, %35
  br i1 %36, label %37, label %52

37:                                               ; preds = %33
  %38 = load i32, i32* %2, align 4
  %39 = sext i32 %38 to i64
  %40 = getelementptr inbounds [20 x %struct.aaa], [20 x %struct.aaa]* %5, i64 0, i64 %39
  %41 = getelementptr inbounds %struct.aaa, %struct.aaa* %40, i32 0, i32 0
  %42 = getelementptr inbounds [105 x i8], [105 x i8]* %41, i64 0, i64 0
  %43 = load i32, i32* %2, align 4
  %44 = sext i32 %43 to i64
  %45 = getelementptr inbounds [20 x %struct.aaa], [20 x %struct.aaa]* %5, i64 0, i64 %44
  %46 = getelementptr inbounds %struct.aaa, %struct.aaa* %45, i32 0, i32 1
  %47 = getelementptr inbounds [105 x i8], [105 x i8]* %46, i64 0, i64 0
  %48 = call i32 (i8*, ...) @printf(i8* getelementptr inbounds ([7 x i8], [7 x i8]* @.str.1, i64 0, i64 0), i8* %42, i8* %47)
  br label %49

49:                                               ; preds = %37
  %50 = load i32, i32* %2, align 4
  %51 = add nsw i32 %50, 1
  store i32 %51, i32* %2, align 4
  br label %33

52:                                               ; preds = %33
  %53 = load i32, i32* %1, align 4
  ret i32 %53
}

declare dso_local i32 @__isoc99_scanf(i8*, ...) #2

declare dso_local i32 @gets(...) #2

declare dso_local i32 @printf(i8*, ...) #2


!llvm.module.flags = !{!0}
!llvm.ident = !{!1}

!0 = !{i32 1, !"wchar_size", i32 4}
!1 = !{!"clang version 10.0.0-4ubuntu1 "}
